target datalayout = "e-m:e-p270:32:32-p271:32:32-p272:64:64-i64:64-i128:128-f80:128-n8:16:32:64-S128"
target triple = "x86_64-pc-linux-gnu"

%struct.FunctionCallInfoBaseData = type { ptr, ptr, ptr, i32, i8, i16, [0 x %struct.NullableDatum] }
%struct.NullableDatum = type { i64, i8 }

@Mode = external global i32, align 4
@.str.1 = private unnamed_addr constant [10 x i8] c"regproc.c\00", align 1
@.str.10 = private unnamed_addr constant [28 x i8] c"operator does not exist: %s\00", align 1
@.str.14 = private unnamed_addr constant [50 x i8] c"regoperator values must be OIDs in bootstrap mode\00", align 1
@__func__.regoperatorin = private unnamed_addr constant [14 x i8] c"regoperatorin\00", align 1
@.str.15 = private unnamed_addr constant [17 x i8] c"missing argument\00", align 1
@.str.16 = private unnamed_addr constant [61 x i8] c"Use NONE to denote the missing argument of a unary operator.\00", align 1
@.str.17 = private unnamed_addr constant [19 x i8] c"too many arguments\00", align 1
@.str.18 = private unnamed_addr constant [41 x i8] c"Provide two argument types for operator.\00", align 1
@.str.39 = private unnamed_addr constant [11 x i8] c"0123456789\00", align 1

; Function Attrs: inlinehint nounwind uwtable
define internal i32 @DatumGetObjectId(i64 noundef %0) #2 {
  %2 = alloca i64, align 8
  store i64 %0, ptr %2, align 8
  %3 = load i64, ptr %2, align 8
  %4 = trunc i64 %3 to i32
  ret i32 %4
}

; Function Attrs: inlinehint nounwind uwtable
define internal ptr @DatumGetPointer(i64 noundef %0) #2 {
  %2 = alloca i64, align 8
  store i64 %0, ptr %2, align 8
  %3 = load i64, ptr %2, align 8
  %4 = inttoptr i64 %3 to ptr
  ret ptr %4
}

; Function Attrs: inlinehint nounwind uwtable
define internal i64 @ObjectIdGetDatum(i32 noundef %0) #2 {
  %2 = alloca i32, align 4
  store i32 %0, ptr %2, align 4
  %3 = load i32, ptr %2, align 4
  %4 = zext i32 %3 to i64
  ret i64 %4
}

; Function Attrs: nounwind uwtable
define internal zeroext i1 @parseNumericOid(ptr noundef %0, ptr noundef %1, ptr noundef %2) #0 {
  %4 = alloca i1, align 1
  %5 = alloca ptr, align 8
  %6 = alloca ptr, align 8
  %7 = alloca ptr, align 8
  %8 = alloca i64, align 8
  store ptr %0, ptr %5, align 8
  store ptr %1, ptr %6, align 8
  store ptr %2, ptr %7, align 8
  %9 = load ptr, ptr %5, align 8
  %10 = getelementptr inbounds i8, ptr %9, i64 0
  %11 = load i8, ptr %10, align 1
  %12 = sext i8 %11 to i32
  %13 = icmp sge i32 %12, 48
  br i1 %13, label %14, label %33

14:                                               ; preds = %3
  %15 = load ptr, ptr %5, align 8
  %16 = getelementptr inbounds i8, ptr %15, i64 0
  %17 = load i8, ptr %16, align 1
  %18 = sext i8 %17 to i32
  %19 = icmp sle i32 %18, 57
  br i1 %19, label %20, label %33

20:                                               ; preds = %14
  %21 = load ptr, ptr %5, align 8
  %22 = call i64 @strspn(ptr noundef %21, ptr noundef @.str.39) #10
  %23 = load ptr, ptr %5, align 8
  %24 = call i64 @strlen(ptr noundef %23) #10
  %25 = icmp eq i64 %22, %24
  br i1 %25, label %26, label %33

26:                                               ; preds = %20
  call void @llvm.lifetime.start.p0(i64 8, ptr %8) #8
  %27 = load ptr, ptr %5, align 8
  %28 = load ptr, ptr %7, align 8
  %29 = call zeroext i1 @DirectInputFunctionCallSafe(ptr noundef @oidin, ptr noundef %27, i32 noundef 0, i32 noundef -1, ptr noundef %28, ptr noundef %8)
  %30 = load i64, ptr %8, align 8
  %31 = call i32 @DatumGetObjectId(i64 noundef %30)
  %32 = load ptr, ptr %6, align 8
  store i32 %31, ptr %32, align 4
  store i1 true, ptr %4, align 1
  call void @llvm.lifetime.end.p0(i64 8, ptr %8) #8
  br label %35

33:                                               ; preds = %20, %14, %3
  %34 = load ptr, ptr %6, align 8
  store i32 0, ptr %34, align 4
  store i1 false, ptr %4, align 1
  br label %35

35:                                               ; preds = %33, %26
  %36 = load i1, ptr %4, align 1
  ret i1 %36
}

; Function Attrs: inlinehint nounwind uwtable
define internal ptr @DatumGetCString(i64 noundef %0) #2 {
  %2 = alloca i64, align 8
  store i64 %0, ptr %2, align 8
  %3 = load i64, ptr %2, align 8
  %4 = call ptr @DatumGetPointer(i64 noundef %3)
  ret ptr %4
}

; Function Attrs: nounwind uwtable
define dso_local i64 @regoperatorin(ptr noundef %0) #0 {
  %2 = alloca i64, align 8
  %3 = alloca ptr, align 8
  %4 = alloca ptr, align 8
  %5 = alloca ptr, align 8
  %6 = alloca i32, align 4
  %7 = alloca ptr, align 8
  %8 = alloca i32, align 4
  %9 = alloca [100 x i32], align 16
  %10 = alloca i32, align 4
  %11 = alloca ptr, align 8
  %12 = alloca ptr, align 8
  %13 = alloca ptr, align 8
  store ptr %0, ptr %3, align 8
  call void @llvm.lifetime.start.p0(i64 8, ptr %4) #8
  %14 = load ptr, ptr %3, align 8
  %15 = getelementptr inbounds nuw %struct.FunctionCallInfoBaseData, ptr %14, i32 0, i32 6
  %16 = getelementptr inbounds [0 x %struct.NullableDatum], ptr %15, i64 0, i64 0
  %17 = getelementptr inbounds nuw %struct.NullableDatum, ptr %16, i32 0, i32 0
  %18 = load i64, ptr %17, align 8
  %19 = call ptr @DatumGetCString(i64 noundef %18)
  store ptr %19, ptr %4, align 8
  call void @llvm.lifetime.start.p0(i64 8, ptr %5) #8
  %20 = load ptr, ptr %3, align 8
  %21 = getelementptr inbounds nuw %struct.FunctionCallInfoBaseData, ptr %20, i32 0, i32 1
  %22 = load ptr, ptr %21, align 8
  store ptr %22, ptr %5, align 8
  call void @llvm.lifetime.start.p0(i64 4, ptr %6) #8
  call void @llvm.lifetime.start.p0(i64 8, ptr %7) #8
  call void @llvm.lifetime.start.p0(i64 4, ptr %8) #8
  call void @llvm.lifetime.start.p0(i64 400, ptr %9) #8
  %23 = load ptr, ptr %4, align 8
  %24 = load ptr, ptr %5, align 8
  %25 = call zeroext i1 @parseNumericOid(ptr noundef %23, ptr noundef %6, ptr noundef %24)
  br i1 %25, label %26, label %29

26:                                               ; preds = %1
  %27 = load i32, ptr %6, align 4
  %28 = call i64 @ObjectIdGetDatum(i32 noundef %27)
  store i64 %28, ptr %2, align 8
  store i32 1, ptr %10, align 4
  br label %120

29:                                               ; preds = %1
  %30 = load i32, ptr @Mode, align 4
  %31 = icmp eq i32 %30, 0
  br i1 %31, label %32, label %43

32:                                               ; preds = %29
  br label %33

33:                                               ; preds = %32
  br i1 true, label %34, label %36

34:                                               ; preds = %33
  %35 = call zeroext i1 @errstart_cold(i32 noundef 21, ptr noundef null) #9
  br i1 %35, label %38, label %40

36:                                               ; preds = %33
  %37 = call zeroext i1 @errstart(i32 noundef 21, ptr noundef null)
  br i1 %37, label %38, label %40

38:                                               ; preds = %36, %34
  %39 = call i32 (ptr, ...) @errmsg_internal(ptr noundef @.str.14)
  call void @errfinish(ptr noundef @.str.1, i32 noundef 654, ptr noundef @__func__.regoperatorin)
  br label %40

40:                                               ; preds = %38, %36, %34
  unreachable

41:                                               ; No predecessors!
  br label %42

42:                                               ; preds = %41
  br label %43

43:                                               ; preds = %42, %29
  %44 = load ptr, ptr %4, align 8
  %45 = getelementptr inbounds [100 x i32], ptr %9, i64 0, i64 0
  %46 = load ptr, ptr %5, align 8
  %47 = call zeroext i1 @parseNameAndArgTypes(ptr noundef %44, i1 noundef zeroext true, ptr noundef %7, ptr noundef %8, ptr noundef %45, ptr noundef %46)
  br i1 %47, label %54, label %48

48:                                               ; preds = %43
  br label %49

49:                                               ; preds = %48
  %50 = load ptr, ptr %3, align 8
  %51 = getelementptr inbounds nuw %struct.FunctionCallInfoBaseData, ptr %50, i32 0, i32 4
  store i8 1, ptr %51, align 4
  store i64 0, ptr %2, align 8
  store i32 1, ptr %10, align 4
  br label %120

52:                                               ; No predecessors!
  br label %53

53:                                               ; preds = %52
  br label %54

54:                                               ; preds = %53, %43
  %55 = load i32, ptr %8, align 4
  %56 = icmp eq i32 %55, 1
  br i1 %56, label %57, label %73

57:                                               ; preds = %54
  br label %58

58:                                               ; preds = %57
  br label %59

59:                                               ; preds = %58
  call void @llvm.lifetime.start.p0(i64 8, ptr %11) #8
  %60 = load ptr, ptr %5, align 8
  store ptr %60, ptr %11, align 8
  %61 = load ptr, ptr %11, align 8
  %62 = call zeroext i1 @errsave_start(ptr noundef %61, ptr noundef null)
  br i1 %62, label %63, label %68

63:                                               ; preds = %59
  %64 = call i32 @errcode(i32 noundef 33685636)
  %65 = call i32 (ptr, ...) @errmsg(ptr noundef @.str.15)
  %66 = call i32 (ptr, ...) @errhint(ptr noundef @.str.16)
  %67 = load ptr, ptr %11, align 8
  call void @errsave_finish(ptr noundef %67, ptr noundef @.str.1, i32 noundef 671, ptr noundef @__func__.regoperatorin)
  br label %68

68:                                               ; preds = %63, %59
  call void @llvm.lifetime.end.p0(i64 8, ptr %11) #8
  br label %69

69:                                               ; preds = %68
  br label %70

70:                                               ; preds = %69
  store i64 0, ptr %2, align 8
  store i32 1, ptr %10, align 4
  br label %120

71:                                               ; No predecessors!
  br label %72

72:                                               ; preds = %71
  br label %73

73:                                               ; preds = %72, %54
  %74 = load i32, ptr %8, align 4
  %75 = icmp ne i32 %74, 2
  br i1 %75, label %76, label %92

76:                                               ; preds = %73
  br label %77

77:                                               ; preds = %76
  br label %78

78:                                               ; preds = %77
  call void @llvm.lifetime.start.p0(i64 8, ptr %12) #8
  %79 = load ptr, ptr %5, align 8
  store ptr %79, ptr %12, align 8
  %80 = load ptr, ptr %12, align 8
  %81 = call zeroext i1 @errsave_start(ptr noundef %80, ptr noundef null)
  br i1 %81, label %82, label %87

82:                                               ; preds = %78
  %83 = call i32 @errcode(i32 noundef 50856197)
  %84 = call i32 (ptr, ...) @errmsg(ptr noundef @.str.17)
  %85 = call i32 (ptr, ...) @errhint(ptr noundef @.str.18)
  %86 = load ptr, ptr %12, align 8
  call void @errsave_finish(ptr noundef %86, ptr noundef @.str.1, i32 noundef 676, ptr noundef @__func__.regoperatorin)
  br label %87

87:                                               ; preds = %82, %78
  call void @llvm.lifetime.end.p0(i64 8, ptr %12) #8
  br label %88

88:                                               ; preds = %87
  br label %89

89:                                               ; preds = %88
  store i64 0, ptr %2, align 8
  store i32 1, ptr %10, align 4
  br label %120

90:                                               ; No predecessors!
  br label %91

91:                                               ; preds = %90
  br label %92

92:                                               ; preds = %91, %73
  %93 = load ptr, ptr %7, align 8
  %94 = getelementptr inbounds [100 x i32], ptr %9, i64 0, i64 0
  %95 = load i32, ptr %94, align 16
  %96 = getelementptr inbounds [100 x i32], ptr %9, i64 0, i64 1
  %97 = load i32, ptr %96, align 4
  %98 = call i32 @OpernameGetOprid(ptr noundef %93, i32 noundef %95, i32 noundef %97)
  store i32 %98, ptr %6, align 4
  %99 = load i32, ptr %6, align 4
  %100 = icmp ne i32 %99, 0
  br i1 %100, label %117, label %101

101:                                              ; preds = %92
  br label %102

102:                                              ; preds = %101
  br label %103

103:                                              ; preds = %102
  call void @llvm.lifetime.start.p0(i64 8, ptr %13) #8
  %104 = load ptr, ptr %5, align 8
  store ptr %104, ptr %13, align 8
  %105 = load ptr, ptr %13, align 8
  %106 = call zeroext i1 @errsave_start(ptr noundef %105, ptr noundef null)
  br i1 %106, label %107, label %112

107:                                              ; preds = %103
  %108 = call i32 @errcode(i32 noundef 52461700)
  %109 = load ptr, ptr %4, align 8
  %110 = call i32 (ptr, ...) @errmsg(ptr noundef @.str.10, ptr noundef %109)
  %111 = load ptr, ptr %13, align 8
  call void @errsave_finish(ptr noundef %111, ptr noundef @.str.1, i32 noundef 683, ptr noundef @__func__.regoperatorin)
  br label %112

112:                                              ; preds = %107, %103
  call void @llvm.lifetime.end.p0(i64 8, ptr %13) #8
  br label %113

113:                                              ; preds = %112
  br label %114

114:                                              ; preds = %113
  store i64 0, ptr %2, align 8
  store i32 1, ptr %10, align 4
  br label %120

115:                                              ; No predecessors!
  br label %116

116:                                              ; preds = %115
  br label %117

117:                                              ; preds = %116, %92
  %118 = load i32, ptr %6, align 4
  %119 = call i64 @ObjectIdGetDatum(i32 noundef %118)
  store i64 %119, ptr %2, align 8
  store i32 1, ptr %10, align 4
  br label %120

120:                                              ; preds = %117, %114, %89, %70, %49, %26
  call void @llvm.lifetime.end.p0(i64 400, ptr %9) #8
  call void @llvm.lifetime.end.p0(i64 4, ptr %8) #8
  call void @llvm.lifetime.end.p0(i64 8, ptr %7) #8
  call void @llvm.lifetime.end.p0(i64 4, ptr %6) #8
  call void @llvm.lifetime.end.p0(i64 8, ptr %5) #8
  call void @llvm.lifetime.end.p0(i64 8, ptr %4) #8
  %121 = load i64, ptr %2, align 8
  ret i64 %121
}