; Function Attrs: nounwind uwtable
define dso_local range(i64 0, 4294967296) i64 @regoperatorin(ptr noundef captures(none) %0) #0 {
  %2 = alloca i64, align 8
  %3 = alloca ptr, align 8
  %4 = alloca i32, align 4
  %5 = alloca [100 x i32], align 16
  %6 = getelementptr inbounds nuw i8, ptr %0, i64 32
  %7 = load i64, ptr %6, align 8
  %8 = inttoptr i64 %7 to ptr
  %9 = getelementptr inbounds nuw i8, ptr %0, i64 8
  %10 = load ptr, ptr %9, align 8
  call void @llvm.lifetime.start.p0(i64 8, ptr nonnull %3) #9
  call void @llvm.lifetime.start.p0(i64 4, ptr nonnull %4) #9
  call void @llvm.lifetime.start.p0(i64 400, ptr nonnull %5) #9
  %11 = load i8, ptr %8, align 1
  %12 = add i8 %11, -48
  %or.cond.i = icmp ult i8 %12, 10
  br i1 %or.cond.i, label %13, label %21

13:                                               ; preds = %1
  %14 = tail call i64 @strspn(ptr noundef nonnull %8, ptr noundef nonnull @.str.39) #8
  %15 = tail call i64 @strlen(ptr noundef nonnull dereferenceable(1) %8) #8
  %16 = icmp eq i64 %14, %15
  br i1 %16, label %17, label %21

17:                                               ; preds = %13
  call void @llvm.lifetime.start.p0(i64 8, ptr nonnull %2) #9
  %18 = call zeroext i1 @DirectInputFunctionCallSafe(ptr noundef nonnull @oidin, ptr noundef nonnull %8, i32 noundef 0, i32 noundef -1, ptr noundef %10, ptr noundef nonnull %2) #9
  %19 = load i64, ptr %2, align 8
  call void @llvm.lifetime.end.p0(i64 8, ptr nonnull %2) #9
  %20 = and i64 %19, 4294967295
  br label %58

21:                                               ; preds = %13, %1
  %22 = load i32, ptr @Mode, align 4
  %23 = icmp eq i32 %22, 0
  br i1 %23, label %24, label %27

24:                                               ; preds = %21
  %25 = tail call zeroext i1 @errstart_cold(i32 noundef 21, ptr noundef null) #10
  tail call void @llvm.assume(i1 %25)
  %26 = tail call i32 (ptr, ...) @errmsg_internal(ptr noundef nonnull @.str.14) #9
  tail call void @errfinish(ptr noundef nonnull @.str.1, i32 noundef 654, ptr noundef nonnull @__func__.regoperatorin) #9
  unreachable

27:                                               ; preds = %21
  %28 = call fastcc zeroext i1 @parseNameAndArgTypes(ptr noundef nonnull %8, i1 noundef zeroext true, ptr noundef %3, ptr noundef %4, ptr noundef %5, ptr noundef %10)
  br i1 %28, label %31, label %29

29:                                               ; preds = %27
  %30 = getelementptr inbounds nuw i8, ptr %0, i64 28
  store i8 1, ptr %30, align 4
  br label %58

31:                                               ; preds = %27
  %32 = load i32, ptr %4, align 4
  switch i32 %32, label %39 [
    i32 1, label %33
    i32 2, label %45
  ]

33:                                               ; preds = %31
  %34 = tail call zeroext i1 @errsave_start(ptr noundef %10, ptr noundef null) #9
  br i1 %34, label %35, label %58

35:                                               ; preds = %33
  %36 = tail call i32 @errcode(i32 noundef 33685636) #9
  %37 = tail call i32 (ptr, ...) @errmsg(ptr noundef nonnull @.str.15) #9
  %38 = tail call i32 (ptr, ...) @errhint(ptr noundef nonnull @.str.16) #9
  tail call void @errsave_finish(ptr noundef %10, ptr noundef nonnull @.str.1, i32 noundef 671, ptr noundef nonnull @__func__.regoperatorin) #9
  br label %58

39:                                               ; preds = %31
  %40 = tail call zeroext i1 @errsave_start(ptr noundef %10, ptr noundef null) #9
  br i1 %40, label %41, label %58

41:                                               ; preds = %39
  %42 = tail call i32 @errcode(i32 noundef 50856197) #9
  %43 = tail call i32 (ptr, ...) @errmsg(ptr noundef nonnull @.str.17) #9
  %44 = tail call i32 (ptr, ...) @errhint(ptr noundef nonnull @.str.18) #9
  tail call void @errsave_finish(ptr noundef %10, ptr noundef nonnull @.str.1, i32 noundef 676, ptr noundef nonnull @__func__.regoperatorin) #9
  br label %58

45:                                               ; preds = %31
  %46 = load ptr, ptr %3, align 8
  %47 = load i32, ptr %5, align 16
  %48 = getelementptr inbounds nuw i8, ptr %5, i64 4
  %49 = load i32, ptr %48, align 4
  %50 = tail call i32 @OpernameGetOprid(ptr noundef %46, i32 noundef %47, i32 noundef %49) #9
  %.not19 = icmp eq i32 %50, 0
  br i1 %.not19, label %51, label %56

51:                                               ; preds = %45
  %52 = tail call zeroext i1 @errsave_start(ptr noundef %10, ptr noundef null) #9
  br i1 %52, label %53, label %58

53:                                               ; preds = %51
  %54 = tail call i32 @errcode(i32 noundef 52461700) #9
  %55 = tail call i32 (ptr, ...) @errmsg(ptr noundef nonnull @.str.10, ptr noundef nonnull %8) #9
  tail call void @errsave_finish(ptr noundef %10, ptr noundef nonnull @.str.1, i32 noundef 683, ptr noundef nonnull @__func__.regoperatorin) #9
  br label %58

56:                                               ; preds = %45
  %57 = zext i32 %50 to i64
  br label %58

58:                                               ; preds = %51, %53, %39, %41, %33, %35, %56, %29, %17
  %.0 = phi i64 [ %20, %17 ], [ %57, %56 ], [ 0, %29 ], [ 0, %35 ], [ 0, %33 ], [ 0, %41 ], [ 0, %39 ], [ 0, %53 ], [ 0, %51 ]
  call void @llvm.lifetime.end.p0(i64 400, ptr nonnull %5) #9
  call void @llvm.lifetime.end.p0(i64 4, ptr nonnull %4) #9
  call void @llvm.lifetime.end.p0(i64 8, ptr nonnull %3) #9
  ret i64 %.0
}